; Function Attrs: mustprogress uwtable
define void @_ZNK6google8protobuf10TextFormat21FastFieldValuePrinter11PrintUInt32EjPNS1_17BaseTextGeneratorE(ptr nocapture nonnull readnone align 8 %this, i32 noundef %val, ptr noundef %generator) unnamed_addr #4 align 2 personality ptr @__gxx_personality_v0 {
entry:
  %ref.tmp.i = alloca %"class.std::allocator", align 1
  %ref.tmp = alloca %"class.std::__cxx11::basic_string", align 8
  %ref.tmp2 = alloca %"class.absl::lts_20230802::AlphaNum", align 8
  %digits_.i = getelementptr inbounds i8, ptr %ref.tmp2, i64 16
  %call.i = call noundef ptr @_ZN4absl12lts_2023080216numbers_internal15FastIntToBufferEjPc(i32 noundef %val, ptr noundef nonnull %digits_.i)
  %sub.ptr.lhs.cast.i = ptrtoint ptr %call.i to i64
  %sub.ptr.rhs.cast.i = ptrtoint ptr %digits_.i to i64
  %sub.ptr.sub.i = sub i64 %sub.ptr.lhs.cast.i, %sub.ptr.rhs.cast.i
  store i64 %sub.ptr.sub.i, ptr %ref.tmp2, align 8
  %_M_str.i.i = getelementptr inbounds i8, ptr %ref.tmp2, i64 8
  store ptr %digits_.i, ptr %_M_str.i.i, align 8
  call void @llvm.lifetime.start.p0(i64 1, ptr nonnull %ref.tmp.i)
  call void @_ZNSaIcEC1Ev(ptr noundef nonnull align 1 dereferenceable(1) %ref.tmp.i) #34, !noalias !57
  invoke void @_ZNSt7__cxx1112basic_stringIcSt11char_traitsIcESaIcEEC1EPKcmRKS3_(ptr noundef nonnull align 8 dereferenceable(32) %ref.tmp, ptr noundef nonnull %digits_.i, i64 noundef %sub.ptr.sub.i, ptr noundef nonnull align 1 dereferenceable(1) %ref.tmp.i)
          to label %_ZN4absl12lts_202308026StrCatB5cxx11ERKNS0_8AlphaNumE.exit unwind label %lpad.i

common.resume:                                    ; preds = %lpad, %lpad.i
  %common.resume.op = phi { ptr, i32 } [ %0, %lpad.i ], [ %4, %lpad ]
  resume { ptr, i32 } %common.resume.op

lpad.i:                                           ; preds = %entry
  %0 = landingpad { ptr, i32 }
          cleanup
  call void @_ZNSaIcED1Ev(ptr noundef nonnull align 1 dereferenceable(1) %ref.tmp.i) #34
  br label %common.resume

_ZN4absl12lts_202308026StrCatB5cxx11ERKNS0_8AlphaNumE.exit: ; preds = %entry
  call void @_ZNSaIcED1Ev(ptr noundef nonnull align 1 dereferenceable(1) %ref.tmp.i) #34
  call void @llvm.lifetime.end.p0(i64 1, ptr nonnull %ref.tmp.i)
  %call = call { i64, ptr } @_ZNKSt7__cxx1112basic_stringIcSt11char_traitsIcESaIcEEcvSt17basic_string_viewIcS2_EEv(ptr noundef nonnull align 8 dereferenceable(32) %ref.tmp) #34
  %1 = extractvalue { i64, ptr } %call, 0
  %2 = extractvalue { i64, ptr } %call, 1
  %vtable.i = load ptr, ptr %generator, align 8
  %vfn.i = getelementptr inbounds i8, ptr %vtable.i, i64 40
  %3 = load ptr, ptr %vfn.i, align 8
  invoke void %3(ptr noundef nonnull align 8 dereferenceable(8) %generator, ptr noundef %2, i64 noundef %1)
          to label %invoke.cont unwind label %lpad

invoke.cont:                                      ; preds = %_ZN4absl12lts_202308026StrCatB5cxx11ERKNS0_8AlphaNumE.exit
  call void @_ZNSt7__cxx1112basic_stringIcSt11char_traitsIcESaIcEED1Ev(ptr noundef nonnull align 8 dereferenceable(32) %ref.tmp) #34
  ret void

lpad:                                             ; preds = %_ZN4absl12lts_202308026StrCatB5cxx11ERKNS0_8AlphaNumE.exit
  %4 = landingpad { ptr, i32 }
          cleanup
  call void @_ZNSt7__cxx1112basic_stringIcSt11char_traitsIcESaIcEED1Ev(ptr noundef nonnull align 8 dereferenceable(32) %ref.tmp) #34
  br label %common.resume
}